; Function Attrs: nounwind uwtable
define hidden void @phpdbg_print_cur_frame_info() local_unnamed_addr #0 {
zend_string_alloc.exit:
  %0 = tail call ptr @zend_get_executed_filename() #11
  %1 = tail call i64 @strlen(ptr noundef nonnull dereferenceable(1) %0) #12
  %2 = and i64 %1, -8
  %3 = add i64 %2, 32
  %4 = tail call noalias ptr @_emalloc(i64 noundef %3) #13
  store i32 1, ptr %4, align 4, !tbaa !58
  %5 = getelementptr inbounds nuw i8, ptr %4, i64 4
  store i32 22, ptr %5, align 4, !tbaa !27
  %6 = getelementptr inbounds nuw i8, ptr %4, i64 8
  store i64 0, ptr %6, align 8, !tbaa !59
  %7 = getelementptr inbounds nuw i8, ptr %4, i64 16
  store i64 %1, ptr %7, align 8, !tbaa !43
  %8 = getelementptr inbounds nuw i8, ptr %4, i64 24
  tail call void @llvm.memcpy.p0.p0.i64(ptr nonnull align 8 %8, ptr nonnull align 1 %0, i64 %1, i1 false)
  %9 = getelementptr inbounds nuw [1 x i8], ptr %8, i64 0, i64 %1
  store i8 0, ptr %9, align 1, !tbaa !27
  %10 = tail call i32 @zend_get_executed_lineno() #11
  %11 = add i32 %10, -1
  %12 = tail call i32 @zend_get_executed_lineno() #11
  tail call void @phpdbg_list_file(ptr noundef nonnull %4, i32 noundef 3, i32 noundef %11, i32 noundef %12) #11
  tail call void @_efree(ptr noundef nonnull %4) #11
  ret void
}